; Function Attrs: mustprogress uwtable
define void @_ZN6casadi8Sparsity6bandedExx(ptr dead_on_unwind noalias writable sret(%"class.casadi::Sparsity") align 8 %0, i64 noundef %1, i64 noundef %2) local_unnamed_addr #3 align 2 personality ptr @__gxx_personality_v0 {
  %4 = alloca %"class.casadi::Sparsity", align 8
  %5 = alloca %"class.casadi::Sparsity", align 8
  tail call void @_ZN6casadi8SparsityC1Exx(ptr noundef nonnull align 8 dereferenceable(8) %0, i64 noundef %1, i64 noundef %1)
  %.not17 = icmp slt i64 %2, 0
  br i1 %.not17, label %._crit_edge, label %.lr.ph.preheader

.lr.ph.preheader:                                 ; preds = %3
  %6 = sub nsw i64 0, %2
  br label %.lr.ph

.lr.ph:                                           ; preds = %.lr.ph.preheader, %_ZN6casadi8SparsityaSEOS0_.exit
  %.01218 = phi i64 [ %10, %_ZN6casadi8SparsityaSEOS0_.exit ], [ %6, %.lr.ph.preheader ]
  invoke void @_ZN6casadi8Sparsity4bandExx(ptr dead_on_unwind nonnull writable sret(%"class.casadi::Sparsity") align 8 %5, i64 noundef %1, i64 noundef %.01218)
          to label %7 unwind label %11

7:                                                ; preds = %.lr.ph
  %8 = invoke noundef ptr @_ZNK6casadi12SharedObjectptEv(ptr noundef nonnull align 8 dereferenceable(8) %0)
          to label %.noexc unwind label %13

.noexc:                                           ; preds = %7
  invoke void @_ZNK6casadi16SparsityInternal7combineERKNS_8SparsityEbb(ptr dead_on_unwind nonnull writable sret(%"class.casadi::Sparsity") align 8 %4, ptr noundef nonnull align 8 dereferenceable(56) %8, ptr noundef nonnull align 8 dereferenceable(8) %5, i1 noundef zeroext false, i1 noundef zeroext false)
          to label %_ZNK6casadi8SparsityplERKS0_.exit unwind label %13

_ZNK6casadi8SparsityplERKS0_.exit:                ; preds = %.noexc
  %9 = invoke noundef nonnull align 8 dereferenceable(8) ptr @_ZN6casadi12SharedObjectaSERKS0_(ptr noundef nonnull align 8 dereferenceable(8) %0, ptr noundef nonnull align 8 dereferenceable(8) %4)
          to label %_ZN6casadi8SparsityaSEOS0_.exit unwind label %15

_ZN6casadi8SparsityaSEOS0_.exit:                  ; preds = %_ZNK6casadi8SparsityplERKS0_.exit
  call void @_ZN6casadi12SharedObjectD2Ev(ptr noundef nonnull align 8 dereferenceable(8) %4) #24
  call void @_ZN6casadi12SharedObjectD2Ev(ptr noundef nonnull align 8 dereferenceable(8) %5) #24
  %10 = add i64 %.01218, 1
  %exitcond.not = icmp eq i64 %.01218, %2
  br i1 %exitcond.not, label %._crit_edge, label %.lr.ph, !llvm.loop !186

11:                                               ; preds = %.lr.ph
  %12 = landingpad { ptr, i32 }
          cleanup
  br label %18

13:                                               ; preds = %.noexc, %7
  %14 = landingpad { ptr, i32 }
          cleanup
  br label %17

15:                                               ; preds = %_ZNK6casadi8SparsityplERKS0_.exit
  %16 = landingpad { ptr, i32 }
          cleanup
  call void @_ZN6casadi12SharedObjectD2Ev(ptr noundef nonnull align 8 dereferenceable(8) %4) #24
  br label %17

17:                                               ; preds = %15, %13
  %.pn = phi { ptr, i32 } [ %16, %15 ], [ %14, %13 ]
  call void @_ZN6casadi12SharedObjectD2Ev(ptr noundef nonnull align 8 dereferenceable(8) %5) #24
  br label %18

._crit_edge:                                      ; preds = %_ZN6casadi8SparsityaSEOS0_.exit, %3
  ret void

18:                                               ; preds = %17, %11
  %.pn.pn = phi { ptr, i32 } [ %.pn, %17 ], [ %12, %11 ]
  call void @_ZN6casadi12SharedObjectD2Ev(ptr noundef nonnull align 8 dereferenceable(8) %0) #24
  resume { ptr, i32 } %.pn.pn
}